; ModuleID = 'source-C-CXX/27/554.c'
source_filename = "source-C-CXX/27/554.c"
target datalayout = "e-m:e-p270:32:32-p271:32:32-p272:64:64-i64:64-f80:128-n8:16:32:64-S128"
target triple = "x86_64-pc-linux-gnu"

@.str = private unnamed_addr constant [3 x i8] c"%d\00", align 1
@.str.1 = private unnamed_addr constant [4 x i8] c",%d\00", align 1

; Function Attrs: nounwind sspstrong uwtable
define dso_local i32 @main() local_unnamed_addr #0 {
  %1 = alloca [10000 x i8], align 16
  %2 = getelementptr inbounds [10000 x i8], [10000 x i8]* %1, i64 0, i64 0
  call void @llvm.lifetime.start.p0i8(i64 10000, i8* nonnull %2) #4
  %3 = call i32 (i8*, ...) bitcast (i32 (...)* @gets to i32 (i8*, ...)*)(i8* nonnull %2) #4
  br label %4

4:                                                ; preds = %9, %0
  %5 = phi i64 [ %10, %9 ], [ 0, %0 ]
  %6 = phi i32 [ %11, %9 ], [ 0, %0 ]
  %7 = getelementptr inbounds [10000 x i8], [10000 x i8]* %1, i64 0, i64 %5
  %8 = load i8, i8* %7, align 1, !tbaa !5
  switch i8 %8, label %9 [
    i8 32, label %12
    i8 0, label %12
  ]

9:                                                ; preds = %4
  %10 = add nuw i64 %5, 1
  %11 = add nuw nsw i32 %6, 1
  br label %4, !llvm.loop !8

12:                                               ; preds = %4, %4
  %13 = trunc i64 %5 to i32
  %14 = call i32 (i8*, ...) @printf(i8* nonnull dereferenceable(1) getelementptr inbounds ([3 x i8], [3 x i8]* @.str, i64 0, i64 0), i32 %6)
  br label %15

15:                                               ; preds = %34, %12
  %16 = phi i32 [ %13, %12 ], [ %35, %34 ]
  %17 = sext i32 %16 to i64
  %18 = getelementptr inbounds [10000 x i8], [10000 x i8]* %1, i64 0, i64 %17
  %19 = load i8, i8* %18, align 1, !tbaa !5
  switch i8 %19, label %20 [
    i8 0, label %36
    i8 32, label %32
  ]

20:                                               ; preds = %15, %24
  %21 = phi i8 [ %28, %24 ], [ %19, %15 ]
  %22 = phi i64 [ %26, %24 ], [ %17, %15 ]
  %23 = phi i32 [ %25, %24 ], [ 0, %15 ]
  switch i8 %21, label %24 [
    i8 32, label %29
    i8 0, label %29
  ]

24:                                               ; preds = %20
  %25 = add nuw nsw i32 %23, 1
  %26 = add i64 %22, 1
  %27 = getelementptr inbounds [10000 x i8], [10000 x i8]* %1, i64 0, i64 %26
  %28 = load i8, i8* %27, align 1, !tbaa !5
  br label %20, !llvm.loop !10

29:                                               ; preds = %20, %20
  %30 = trunc i64 %22 to i32
  %31 = call i32 (i8*, ...) @printf(i8* nonnull dereferenceable(1) getelementptr inbounds ([4 x i8], [4 x i8]* @.str.1, i64 0, i64 0), i32 %23)
  br label %34

32:                                               ; preds = %15
  %33 = add nsw i32 %16, 1
  br label %34

34:                                               ; preds = %32, %29
  %35 = phi i32 [ %30, %29 ], [ %33, %32 ]
  br label %15, !llvm.loop !11

36:                                               ; preds = %15
  call void @llvm.lifetime.end.p0i8(i64 10000, i8* nonnull %2) #4
  ret i32 0
}

; Function Attrs: argmemonly mustprogress nofree nosync nounwind willreturn
declare void @llvm.lifetime.start.p0i8(i64 immarg, i8* nocapture) #1

declare i32 @gets(...) local_unnamed_addr #2

; Function Attrs: nofree nounwind
declare noundef i32 @printf(i8* nocapture noundef readonly, ...) local_unnamed_addr #3

; Function Attrs: argmemonly mustprogress nofree nosync nounwind willreturn
declare void @llvm.lifetime.end.p0i8(i64 immarg, i8* nocapture) #1


!llvm.module.flags = !{!0, !1, !2, !3}
!llvm.ident = !{!4}

!0 = !{i32 1, !"wchar_size", i32 4}
!1 = !{i32 7, !"PIC Level", i32 2}
!2 = !{i32 7, !"PIE Level", i32 2}
!3 = !{i32 7, !"uwtable", i32 1}
!4 = !{!"clang version 13.0.0"}
!5 = !{!6, !6, i64 0}
!6 = !{!"omnipotent char", !7, i64 0}
!7 = !{!"Simple C/C++ TBAA"}
!8 = distinct !{!8, !9}
!9 = !{!"llvm.loop.mustprogress"}
!10 = distinct !{!10, !9}
!11 = distinct !{!11, !9}
